-----BEGIN CERTIFICATE-----
MIIDVTCCAj2gAwIBAgIIQfJ8xvOHXQQwDQYJKoZIhvcNAQELBQAwHTEbMBkGA1UE
AxMSS0VFTCBDQSBvbiBjbHVzdGVyMB4XDTIxMTEyOTA4MzkxM1oXDTIyMTEyOTA4
MzkxM1owJDEiMCAGA1UEAxMZc2dkbGl0dm0wOTA2LmhwZXN3bGFiLm5ldDCCASIw
DQYJKoZIhvcNAQEBBQADggEPADCCAQoCggEBAL/OPOKBhzoRrBSWcL8WwkZVLp3C
LQXL5M4wPGeyKDvcds5lILY4u7XLtlEN7rWj1pWhbiITZb2mBxpHLAP++fgiCvUC
PeFWT/igMr+0OjOVSIcy6scwBXuUvUWZfNJIeVvqsmQnTZaUZw+dEXxhAZV5ZSRn
rvTw+0/yMOz6oIlyxg80+cUjuqo/IDD2AlHlPTHJWwf/VwbNW95pevgclZ7ZicAO
JjkuDp3R+O/P9Amv33kooBP/jNmciFFwx9gMv+jNRpjk8aM36rKMu8dnBiGSZ+9r
AQGFx9oj3VsAVJCegndZ40f1ZYN+o2rifILzX0Vb4x058cGiTr+9kGD2FkECAwEA
AaOBkTCBjjAOBgNVHQ8BAf8EBAMCBaAwEwYDVR0lBAwwCgYIKwYBBQUHAwEwDAYD
VR0TAQH/BAIwADAfBgNVHSMEGDAWgBTKpXnU610f8I9AUqmvO+drhHT5uTA4BgNV
HREEMTAvghlzZ2RsaXR2bTA5MDYuaHBlc3dsYWIubmV0ggxzZ2RsaXR2bTA5MDaH
BBC7v5cwDQYJKoZIhvcNAQELBQADggEBAFtj+Y75TRtWCPYcKjfc3E9L2IASOfPf
CeYM5hn4+iL0hCYGpYjpaWlgReViWkq82gwb0WdR+m2E/PIduscCE+xbmP0Tlscb
swtPU987F2VFZnfDKw/NnSIJe2/e8kL3Wh6QtpjL0lLdTMbjpmjtPD95yCw4mgwA
xHAfi9h6cOwPiJRXKBECAjU0Dwo9IC9x3GYJjbbXrogTQRw6tq4O2MSj+bGKb41o
Wz1QTkoMWx5mneBolSaF1NnaZy3Wh8k1togemBVJNTfyCZuG3Hwr4u0lEuHQ+3AG
K9P3atUV5VCaB1Dnc+kI3sLEWsYBz05xmseTU+v8GGGCMkFH2y2tNaA=
-----END CERTIFICATE-----

-----BEGIN CERTIFICATE-----
MIIDvDCCAqSgAwIBAgIICGbLOXkWAB4wDQYJKoZIhvcNAQELBQAwHTEbMBkGA1UE
AxMSS0VFTCBDQSBvbiBjbHVzdGVyMB4XDTIxMTEyOTA4MzkxMFoXDTIyMTEyOTA4
MzkxMFowJDEiMCAGA1UEAxMZc2dkbGl0dm0wOTA2LmhwZXN3bGFiLm5ldDCCASIw
DQYJKoZIhvcNAQEBBQADggEPADCCAQoCggEBAMnBinJLPP2FcWB3hl6cdQAhHfGw
qr+1AFRWvVbOG9OHxQ9Zq8bfvDJLRjkyaDmPYuMyA5v+HFap2jI1ctooG5pEitPI
Y199vHwSzituELk9LjM9RDFcde5NxE1V6Rc3Ad9/1Iu5Q2gi0DwNeHGms0RF4jmu
0I2AIqdSEnyGoz0JWzbMt5Pa+LWQq29EW5+ixZr6sXZIYxtKdX3FbEolFNwLFA4x
56azZRRN1QRDQk4mptc529/XICreCRNAKKS524gZJIKd3MWZs32Th0T2beOzx6nY
x92hfOphFMWvOJhu3JVei35L34iQdbmV2BJwe0+MANXK9q6XNknnUjSgxJcCAwEA
AaOB+DCB9TAOBgNVHQ8BAf8EBAMCBaAwEwYDVR0lBAwwCgYIKwYBBQUHAwEwDAYD
VR0TAQH/BAIwADAfBgNVHSMEGDAWgBTKpXnU610f8I9AUqmvO+drhHT5uTCBngYD
VR0RBIGWMIGTghlzZ2RsaXR2bTA5MDYuaHBlc3dsYWIubmV0ggxzZ2RsaXR2bTA5
MDaCCmt1YmVybmV0ZXOCEmt1YmVybmV0ZXMuZGVmYXVsdIIWa3ViZXJuZXRlcy5k
ZWZhdWx0LnN2Y4Ika3ViZXJuZXRlcy5kZWZhdWx0LnN2Yy5jbHVzdGVyLmxvY2Fs
hwQQu7+XhwSsEREBMA0GCSqGSIb3DQEBCwUAA4IBAQBycw6Ys7H9ZqBvraNGNr8h
aCTN4raIKa7W9pkmLaYWGdLNwBoil6ZzBUSD7skNjBJDesd9pql5MGOq6LzxRK6u
tTmJp5iY1tPH5+PLfH86BFTjtjlxBUyclRctHm0CduC8WTjIBuJQwYSxjkxA/Dbb
28Hn0L0oUUSrel/LZep3H/8jpxGotikzfT6OSOk4zR1Q75aDO/MRI+1XwrDO0U8O
vKVKU5siHAXSggFs/2wJqF2l4E+mte0qrQnKl6aZk1GO4cfZLVvQk47fdVYs6+lP
BUFYHbPRz51eQxkuUwT+g8gkqIAI/yNZcDihtKvjvna85HYki9sFbM6rFpf/7HVs
-----END CERTIFICATE-----
Certificate:
    Data:
        Version: 3 (0x2)
        Serial Number: 1 (0x1)
        Signature Algorithm: sha256WithRSAEncryption
        Issuer: C=cn, ST=sh, L=pd, O=itom, OU=cdf, CN=one
        Validity
            Not Before: Sep  2 05:26:14 2021 GMT
            Not After : Aug 31 05:26:14 2031 GMT
        Subject: C=cn, ST=sh, O=itom, OU=cdf, CN=two
        Subject Public Key Info:
            Public Key Algorithm: rsaEncryption
                RSA Public-Key: (4096 bit)
                Modulus:
                    00:b9:76:9e:aa:20:f2:6a:45:17:94:c6:7d:2f:74:
                    11:1c:92:71:1a:31:cc:a5:0d:aa:9d:6f:c7:19:d7:
                    9e:28:e5:49:46:f5:86:b3:28:57:ee:d7:7e:49:a5:
                    a5:03:d1:fe:3d:2b:ba:79:f5:e1:02:10:60:e3:b9:
                    d1:2a:18:b7:68:e6:ba:4f:94:be:12:d8:6e:f5:76:
                    bd:c2:22:97:73:f6:cc:00:3b:b0:e1:ea:35:b6:a7:
                    8d:f9:4f:0a:3d:34:1d:7b:17:67:09:01:d2:7b:a1:
                    d3:b3:18:8c:cb:79:5c:d2:f9:fb:e2:24:cc:c5:cc:
                    e1:17:c6:71:09:5b:c0:38:9f:5b:29:ad:14:73:93:
                    32:16:23:94:13:31:b4:de:4a:4b:32:0c:e7:75:c7:
                    28:bb:94:80:05:6e:57:09:dc:d9:d3:f9:e0:78:ff:
                    1e:c1:09:c3:32:06:47:9b:3b:25:d7:f4:48:ba:56:
                    3b:70:7e:7e:21:a1:91:86:e1:e9:d7:58:5c:94:f9:
                    7c:53:6f:e8:0f:69:63:d8:9a:e1:24:56:de:36:29:
                    a5:64:9d:2f:62:ae:12:49:73:2f:84:0b:6b:4b:88:
                    2b:cc:5d:38:ab:61:19:38:8f:c6:d1:a3:2d:c7:3c:
                    54:a4:51:ed:58:ff:55:b1:00:9c:b6:42:a0:d2:2d:
                    6c:ff:2f:07:ae:a9:45:a6:bc:c0:17:9e:8c:32:f7:
                    01:2f:bc:00:f5:46:ab:7e:f3:2b:5e:c7:95:42:c9:
                    0c:20:09:bd:a4:9d:bc:96:21:b7:60:39:61:4a:2c:
                    93:df:ee:74:66:62:01:be:e4:fe:3a:6b:b0:92:c5:
                    3e:08:69:a9:f9:96:02:53:fe:e9:b0:66:dc:27:1d:
                    1b:b3:b9:05:19:35:19:a0:71:e0:20:74:f8:42:d4:
                    11:79:be:8d:8f:2b:1e:5c:fc:e3:3e:42:ea:bd:78:
                    b4:61:37:80:86:9f:4e:dc:9c:d6:e0:81:91:b1:89:
                    01:55:c6:56:58:06:4d:30:a9:20:04:c8:c9:8f:b9:
                    b4:cf:80:7f:8f:1d:a0:93:0c:53:60:7b:ea:0a:0e:
                    4c:5d:8e:ab:ef:ed:f1:f8:ae:06:9b:7c:29:47:b1:
                    b1:1a:b4:c3:d7:2b:10:ca:83:73:a0:a5:a9:63:7f:
                    ac:c5:e0:f3:c7:03:a0:df:77:a5:bd:d0:4c:54:e0:
                    82:09:a1:3a:aa:d6:7b:4b:6f:88:33:a4:29:d5:c9:
                    2a:13:49:97:a1:5a:87:0a:a3:e4:a7:59:c2:1f:43:
                    08:3c:32:7c:4d:aa:c3:0b:51:d8:bd:6d:2e:24:e1:
                    5f:44:b2:6c:20:a5:93:cc:66:cd:98:7c:9f:8a:b3:
                    16:98:a3
                Exponent: 65537 (0x10001)
        X509v3 extensions:
            X509v3 Subject Key Identifier:
                06:90:89:38:18:DC:BA:27:C7:3A:28:30:F8:9A:D6:0B:FE:B6:F2:0C
            X509v3 Authority Key Identifier:
                keyid:2B:CF:A1:0D:33:62:9E:8B:A0:57:F2:54:EA:BC:75:E6:B7:AA:98:F2

            X509v3 Basic Constraints: critical
                CA:TRUE
    Signature Algorithm: sha256WithRSAEncryption
         b7:0e:8e:c3:1e:8a:24:ad:6c:22:50:ec:1a:52:05:cd:01:2c:
         6f:81:4a:64:83:c2:27:76:69:68:51:a3:89:05:eb:47:d7:66:
         bc:bf:d0:bf:7e:f5:61:7f:93:22:cc:0a:20:b2:87:6c:99:8e:
         18:48:a2:f0:e6:6b:ed:bf:fa:3d:90:53:31:ce:68:79:b7:24:
         fc:83:3a:ff:b7:05:a2:b0:de:e0:3a:a8:34:e0:1d:bb:7b:4e:
         5e:40:2b:43:6d:7c:98:3e:9a:f8:e8:2a:3d:76:13:8b:7d:9b:
         6a:35:fe:c4:2b:16:ce:22:d7:f0:4e:ce:c8:68:5f:be:69:c9:
         9e:ee:9a:2e:92:33:0c:c0:f2:0f:be:5b:88:9f:75:44:3d:ec:
         96:0d:ab:00:9c:d9:3a:5d:72:36:bd:f8:6b:49:34:26:60:64:
         1a:39:86:07:06:2e:c8:ab:09:17:d0:3e:77:3b:2a:97:54:c9:
         c4:d3:6b:9c:fb:e3:82:0f:6e:8b:5a:82:80:d6:02:23:32:46:
         88:d4:3c:44:27:65:fa:8d:cc:54:81:22:50:71:b9:e8:ad:13:
         05:f3:d9:80:46:8d:5c:82:d4:f5:a3:42:86:d6:a0:74:bd:d9:
         d1:17:9c:79:a8:d2:61:f5:d0:47:d3:05:d9:55:57:dc:02:cd:
         ce:2a:be:86:e1:6d:2e:33:6f:c4:da:52:10:ee:58:74:5b:4e:
         71:40:b2:2e:70:9d:98:ea:08:03:01:b6:ed:89:33:2e:2c:13:
         fb:3f:1b:ab:96:6e:24:75:bc:38:d3:34:b9:50:45:c5:cf:c4:
         f2:d5:8d:2f:78:d5:78:7f:19:54:5e:d5:21:85:fd:ef:d3:9f:
         6c:01:29:42:c1:ba:db:87:c3:38:19:74:a1:0f:f8:a7:ae:31:
         0f:32:a3:fa:08:23:af:9b:12:4f:70:2a:2a:98:6f:51:7a:a7:
         a4:7c:b7:1a:80:f0:a8:e3:22:c7:ab:6e:04:83:20:f0:fa:6f:
         c1:dd:e2:43:2e:7b:e9:3a:f2:96:c6:45:51:7c:56:8c:e9:48:
         c6:3f:1d:bf:0c:8c:72:2a:03:2e:14:e5:65:37:a4:9b:44:09:
         ce:20:fc:73:2d:4b:eb:bd:16:c7:3b:75:14:04:36:57:3c:e4:
         52:7c:ea:5a:46:5e:49:28:38:07:b7:ab:32:5f:7d:44:38:dc:
         33:b7:9d:e5:07:62:d3:a1:2f:cd:95:a4:a0:e8:cd:75:93:ce:
         03:f7:fc:63:11:5c:4d:4e:ec:45:90:44:08:38:19:3c:18:67:
         b3:03:d3:7e:e1:ac:30:41:b7:4b:8f:4e:24:4a:cd:c9:8f:55:
         1b:2a:d9:43:35:10:77:c2


-----BEGIN CERTIFICATE-----
MIIC7jCCAdagAwIBAgIITWWCIQf8/VIwDQYJKoZIhvcNAQELBQAwHTEbMBkGA1UE
AxMSS0VFTCBDQSBvbiBjbHVzdGVyMB4XDTIxMTEyOTA4MzkwNVoXDTMxMTIwNzA4
MzkwNVowHTEbMBkGA1UEAxMSS0VFTCBDQSBvbiBjbHVzdGVyMIIBIjANBgkqhkiG
9w0BAQEFAAOCAQ8AMIIBCgKCAQEAptqCZjAKnSYJihq/GxsarYzSSQSEK/bw1Sui
sUyXc1r2Izj7SZc0Q247SOG7tAd3BMmxgi+XhvRy2USyToj/t1ZiKxcfzwHwUsN7
nHlcnWLXVd8ysQSwU5l8bPQ6Vjxtm5Aps8P6OnJfAIhOM6XtFJf4+YnEiTXdQ+Tq
/NzQ8KFBv/1HKqhZQmbYmW+XCbE95lk5pzhjnVxSxKpykGRCu9CB2GNjs7m+8Max
fkwdG/YoPjwo0RB6yrBD0vig953mCaTlOvsfMDnlC5N5Nrx0EORrNd8hnicR9H6Y
bjpPeGnHgaElWhV9eADCVDVXXBlkeu91ziSKLsTVOUTJOAGlsQIDAQABozIwMDAP
BgNVHRMBAf8EBTADAQH/MB0GA1UdDgQWBBTKpXnU610f8I9AUqmvO+drhHT5uTAN
BgkqhkiG9w0BAQsFAAOCAQEABl1of/DVbaZ/2MsnJq4PdvH/JBymW5AM8DYlnksg
xGyKEskzWnOc5aVjDGNaN4GM2Nui3q36ufJPnk+5aAGlxJk136o+ZC19Es1tpclB
w2dOVlvG5z0hH0z2p0cOv8is6qBoDPVuLHWR3VHXn8O5JlwGIkDkj/SM72mMX5s7
F2bKY0RJpCu6iumy5MWoLnfx+alIA5wJnZvMwY4KaVCiRFXCQAP9ZEJA4K5nfr9+
ifGREMTn+4NJvfs6pKhMpmEbknmM05zKxZAjwlPuWmPaF1LKQ003daW6cP96lGpP
dakidK77tt80OeIwOfv3qqbx2GbJPvIxQU1GGloGjXkM9A==
-----END CERTIFICATE-----

